; Function Attrs: nounwind uwtable
define ptr @NCONF_new(ptr noundef %0) local_unnamed_addr #0 {
  %2 = icmp eq ptr %0, null
  br i1 %2, label %3, label %5

3:                                                ; preds = %1
  %4 = tail call ptr @NCONF_default() #15
  br label %5

5:                                                ; preds = %3, %1
  %.08.i = phi ptr [ %4, %3 ], [ %0, %1 ]
  %6 = getelementptr inbounds nuw i8, ptr %.08.i, i64 8
  %7 = load ptr, ptr %6, align 8, !tbaa !27
  %8 = tail call ptr %7(ptr noundef %.08.i) #15
  %9 = icmp eq ptr %8, null
  br i1 %9, label %10, label %11

10:                                               ; preds = %5
  tail call void @ERR_new() #15
  tail call void @ERR_set_debug(ptr noundef nonnull @.str.1, i32 noundef 191, ptr noundef nonnull @__func__.NCONF_new_ex) #15
  tail call void (i32, i32, ptr, ...) @ERR_set_error(i32 noundef 14, i32 noundef 524302, ptr noundef null) #15
  br label %NCONF_new_ex.exit

11:                                               ; preds = %5
  %12 = getelementptr inbounds nuw i8, ptr %8, i64 40
  store ptr null, ptr %12, align 8, !tbaa !28
  br label %NCONF_new_ex.exit

NCONF_new_ex.exit:                                ; preds = %10, %11
  ret ptr %8
}